; Function Attrs: mustprogress uwtable
define noundef zeroext i1 @_ZN32pxrInternal_v0_24__pxrReserved__12ArchDemangleEPNSt7__cxx1112basic_stringIcSt11char_traitsIcESaIcEEE(ptr noundef %0) local_unnamed_addr #0 {
  %2 = alloca [35 x i8], align 16
  %3 = tail call fastcc noundef zeroext i1 @_ZN32pxrInternal_v0_24__pxrReserved__L15_DemangleNewRawEPNSt7__cxx1112basic_stringIcSt11char_traitsIcESaIcEEE(ptr noundef %0)
  br i1 %3, label %4, label %_ZN32pxrInternal_v0_24__pxrReserved__L12_DemangleNewEPNSt7__cxx1112basic_stringIcSt11char_traitsIcESaIcEEE.exit

4:                                                ; preds = %1
  tail call fastcc void @_ZN32pxrInternal_v0_24__pxrReserved__L17_FixupStringNamesEPNSt7__cxx1112basic_stringIcSt11char_traitsIcESaIcEEE(ptr noundef %0)
  call void @llvm.lifetime.start.p0(i64 35, ptr nonnull %2)
  call void @llvm.memcpy.p0.p0.i64(ptr noundef nonnull align 16 dereferenceable(35) %2, ptr noundef nonnull align 16 dereferenceable(35) @__const._ZN32pxrInternal_v0_24__pxrReserved__L26_StripPxrInternalNamespaceEPNSt7__cxx1112basic_stringIcSt11char_traitsIcESaIcEEE.nsQualifier, i64 35, i1 false)
  %5 = call noundef i64 @_ZNKSt7__cxx1112basic_stringIcSt11char_traitsIcESaIcEE4findEPKcm(ptr noundef nonnull align 8 dereferenceable(32) %0, ptr noundef nonnull %2, i64 noundef 0) #14
  %.not4.i = icmp eq i64 %5, -1
  br i1 %.not4.i, label %_ZN32pxrInternal_v0_24__pxrReserved__L26_StripPxrInternalNamespaceEPNSt7__cxx1112basic_stringIcSt11char_traitsIcESaIcEEE.exit, label %.lr.ph.i

.lr.ph.i:                                         ; preds = %4, %.lr.ph.i
  %.05.i = phi i64 [ %7, %.lr.ph.i ], [ %5, %4 ]
  %6 = call noundef nonnull align 8 dereferenceable(32) ptr @_ZNSt7__cxx1112basic_stringIcSt11char_traitsIcESaIcEE5eraseEmm(ptr noundef nonnull align 8 dereferenceable(32) %0, i64 noundef %.05.i, i64 noundef 34)
  %7 = call noundef i64 @_ZNKSt7__cxx1112basic_stringIcSt11char_traitsIcESaIcEE4findEPKcm(ptr noundef nonnull align 8 dereferenceable(32) %0, ptr noundef nonnull %2, i64 noundef 0) #14
  %.not.i = icmp eq i64 %7, -1
  br i1 %.not.i, label %_ZN32pxrInternal_v0_24__pxrReserved__L26_StripPxrInternalNamespaceEPNSt7__cxx1112basic_stringIcSt11char_traitsIcESaIcEEE.exit, label %.lr.ph.i, !llvm.loop !4

_ZN32pxrInternal_v0_24__pxrReserved__L26_StripPxrInternalNamespaceEPNSt7__cxx1112basic_stringIcSt11char_traitsIcESaIcEEE.exit: ; preds = %.lr.ph.i, %4
  call void @llvm.lifetime.end.p0(i64 35, ptr nonnull %2)
  br label %_ZN32pxrInternal_v0_24__pxrReserved__L12_DemangleNewEPNSt7__cxx1112basic_stringIcSt11char_traitsIcESaIcEEE.exit

_ZN32pxrInternal_v0_24__pxrReserved__L12_DemangleNewEPNSt7__cxx1112basic_stringIcSt11char_traitsIcESaIcEEE.exit: ; preds = %1, %_ZN32pxrInternal_v0_24__pxrReserved__L26_StripPxrInternalNamespaceEPNSt7__cxx1112basic_stringIcSt11char_traitsIcESaIcEEE.exit
  ret i1 %3
}